; Function Attrs: mustprogress uwtable
define noundef ptr @_ZN7rocksdb22BlockCacheTierMetadata6RemoveERKNS_5SliceE(ptr noundef nonnull align 8 dereferenceable(96) %0, ptr noundef nonnull align 8 dereferenceable(16) %1) local_unnamed_addr #0 align 2 personality ptr @__gxx_personality_v0 {
  %3 = alloca %"struct.rocksdb::BlockInfo", align 8
  %4 = alloca ptr, align 8
  %5 = alloca ptr, align 8
  call void @llvm.lifetime.start.p0(i64 48, ptr nonnull %3) #15
  call void @_ZNK7rocksdb5Slice8ToStringB5cxx11Eb(ptr dead_on_unwind nonnull writable sret(%"class.std::__cxx11::basic_string") align 8 dereferenceable(44) %3, ptr noundef nonnull align 8 dereferenceable(16) %1, i1 noundef zeroext false)
  %6 = getelementptr inbounds nuw i8, ptr %3, i64 32
  store i32 0, ptr %6, align 8, !tbaa !96
  %.sroa.4.0..sroa_idx = getelementptr inbounds nuw i8, ptr %3, i64 36
  store i32 0, ptr %.sroa.4.0..sroa_idx, align 4, !tbaa !96
  %.sroa.5.0..sroa_idx = getelementptr inbounds nuw i8, ptr %3, i64 40
  store i32 0, ptr %.sroa.5.0..sroa_idx, align 8, !tbaa !96
  call void @llvm.lifetime.start.p0(i64 8, ptr nonnull %4) #15
  store ptr null, ptr %4, align 8, !tbaa !93
  %7 = getelementptr inbounds nuw i8, ptr %0, i64 56
  call void @llvm.lifetime.start.p0(i64 8, ptr nonnull %5) #15
  store ptr %3, ptr %5, align 8, !tbaa !93
  %8 = invoke noundef zeroext i1 @_ZN7rocksdb9HashTableIPNS_9BlockInfoENS_22BlockCacheTierMetadata4HashENS3_5EqualEE5EraseERKS2_PS2_(ptr noundef nonnull align 8 dereferenceable(40) %7, ptr noundef nonnull align 8 dereferenceable(8) %5, ptr noundef nonnull %4)
          to label %9 unwind label %19

9:                                                ; preds = %2
  call void @llvm.lifetime.end.p0(i64 8, ptr nonnull %5) #15
  %10 = load ptr, ptr %4, align 8, !tbaa !93
  call void @llvm.lifetime.end.p0(i64 8, ptr nonnull %4) #15
  %11 = load ptr, ptr %3, align 8, !tbaa !69
  %12 = getelementptr inbounds nuw i8, ptr %3, i64 16
  %13 = icmp eq ptr %11, %12
  br i1 %13, label %_ZNKSt7__cxx1112basic_stringIcSt11char_traitsIcESaIcEE11_M_is_localEv.exit.thread.i.i.i, label %_ZNKSt7__cxx1112basic_stringIcSt11char_traitsIcESaIcEE11_M_is_localEv.exit.i.i.i

_ZNKSt7__cxx1112basic_stringIcSt11char_traitsIcESaIcEE11_M_is_localEv.exit.thread.i.i.i: ; preds = %9
  %14 = getelementptr inbounds nuw i8, ptr %3, i64 8
  %15 = load i64, ptr %14, align 8, !tbaa !64
  %16 = icmp ult i64 %15, 16
  call void @llvm.assume(i1 %16)
  br label %_ZN7rocksdb9BlockInfoD2Ev.exit

_ZNKSt7__cxx1112basic_stringIcSt11char_traitsIcESaIcEE11_M_is_localEv.exit.i.i.i: ; preds = %9
  %17 = load i64, ptr %12, align 8, !tbaa !65
  %18 = add i64 %17, 1
  call void @_ZdlPvm(ptr noundef %11, i64 noundef %18) #17
  br label %_ZN7rocksdb9BlockInfoD2Ev.exit

_ZN7rocksdb9BlockInfoD2Ev.exit:                   ; preds = %_ZNKSt7__cxx1112basic_stringIcSt11char_traitsIcESaIcEE11_M_is_localEv.exit.thread.i.i.i, %_ZNKSt7__cxx1112basic_stringIcSt11char_traitsIcESaIcEE11_M_is_localEv.exit.i.i.i
  call void @llvm.lifetime.end.p0(i64 48, ptr nonnull %3) #15
  ret ptr %10

19:                                               ; preds = %2
  %20 = landingpad { ptr, i32 }
          cleanup
  call void @llvm.lifetime.end.p0(i64 8, ptr nonnull %5) #15
  call void @llvm.lifetime.end.p0(i64 8, ptr nonnull %4) #15
  %21 = load ptr, ptr %3, align 8, !tbaa !69
  %22 = getelementptr inbounds nuw i8, ptr %3, i64 16
  %23 = icmp eq ptr %21, %22
  br i1 %23, label %_ZNKSt7__cxx1112basic_stringIcSt11char_traitsIcESaIcEE11_M_is_localEv.exit.thread.i.i.i4, label %_ZNKSt7__cxx1112basic_stringIcSt11char_traitsIcESaIcEE11_M_is_localEv.exit.i.i.i3

_ZNKSt7__cxx1112basic_stringIcSt11char_traitsIcESaIcEE11_M_is_localEv.exit.thread.i.i.i4: ; preds = %19
  %24 = getelementptr inbounds nuw i8, ptr %3, i64 8
  %25 = load i64, ptr %24, align 8, !tbaa !64
  %26 = icmp ult i64 %25, 16
  call void @llvm.assume(i1 %26)
  br label %_ZN7rocksdb9BlockInfoD2Ev.exit5

_ZNKSt7__cxx1112basic_stringIcSt11char_traitsIcESaIcEE11_M_is_localEv.exit.i.i.i3: ; preds = %19
  %27 = load i64, ptr %22, align 8, !tbaa !65
  %28 = add i64 %27, 1
  call void @_ZdlPvm(ptr noundef %21, i64 noundef %28) #17
  br label %_ZN7rocksdb9BlockInfoD2Ev.exit5

_ZN7rocksdb9BlockInfoD2Ev.exit5:                  ; preds = %_ZNKSt7__cxx1112basic_stringIcSt11char_traitsIcESaIcEE11_M_is_localEv.exit.thread.i.i.i4, %_ZNKSt7__cxx1112basic_stringIcSt11char_traitsIcESaIcEE11_M_is_localEv.exit.i.i.i3
  call void @llvm.lifetime.end.p0(i64 48, ptr nonnull %3) #15
  resume { ptr, i32 } %20
}